target datalayout = "e-m:e-p270:32:32-p271:32:32-p272:64:64-i64:64-i128:128-f80:128-n8:16:32:64-S128"
target triple = "x86_64-pc-linux-gnu"

%struct.jpeg_decompress_struct = type { ptr, ptr, ptr, ptr, i32, i32, ptr, i32, i32, i32, i32, i32, i32, i32, double, i32, i32, i32, i32, i32, i32, i32, i32, i32, i32, i32, i32, i32, i32, i32, i32, i32, i32, ptr, i32, i32, i32, i32, i32, ptr, [4 x ptr], [4 x ptr], [4 x ptr], i32, ptr, i32, i32, [16 x i8], [16 x i8], [16 x i8], i32, i32, i8, i8, i8, i16, i16, i32, i8, i32, ptr, i32, i32, i32, i32, ptr, i32, [4 x ptr], i32, i32, i32, [10 x i32], i32, i32, i32, i32, i32, ptr, ptr, ptr, ptr, ptr, ptr, ptr, ptr, ptr, ptr, ptr }
%struct.jpeg_error_mgr = type { ptr, ptr, ptr, ptr, ptr, i32, %union.anon, i32, i64, ptr, i32, ptr, i32, i32 }
%union.anon = type { [8 x i32], [48 x i8] }
%struct.jpeg_decomp_master = type { ptr, ptr, i32, i32, i32, i32, [10 x i32], [10 x i32], i32, i32, ptr }
%struct.my_decomp_master = type { %struct.jpeg_decomp_master, i32, i32, ptr, ptr }
%struct.jpeg_color_quantizer = type { ptr, ptr, ptr, ptr, ptr }

; Function Attrs: nounwind uwtable
define void @jpeg_new_colormap(ptr noundef %0) #0 {
  %2 = alloca ptr, align 8
  %3 = alloca ptr, align 8
  store ptr %0, ptr %2, align 8
  %4 = load ptr, ptr %2, align 8
  %5 = getelementptr inbounds %struct.jpeg_decompress_struct, ptr %4, i32 0, i32 77
  %6 = load ptr, ptr %5, align 8
  store ptr %6, ptr %3, align 8
  %7 = load ptr, ptr %2, align 8
  %8 = getelementptr inbounds %struct.jpeg_decompress_struct, ptr %7, i32 0, i32 5
  %9 = load i32, ptr %8, align 4
  %10 = icmp ne i32 %9, 207
  br i1 %10, label %11, label %30

11:                                               ; preds = %1
  %12 = load ptr, ptr %2, align 8
  %13 = getelementptr inbounds %struct.jpeg_decompress_struct, ptr %12, i32 0, i32 0
  %14 = load ptr, ptr %13, align 8
  %15 = getelementptr inbounds %struct.jpeg_error_mgr, ptr %14, i32 0, i32 5
  store i32 20, ptr %15, align 8
  %16 = load ptr, ptr %2, align 8
  %17 = getelementptr inbounds %struct.jpeg_decompress_struct, ptr %16, i32 0, i32 5
  %18 = load i32, ptr %17, align 4
  %19 = load ptr, ptr %2, align 8
  %20 = getelementptr inbounds %struct.jpeg_decompress_struct, ptr %19, i32 0, i32 0
  %21 = load ptr, ptr %20, align 8
  %22 = getelementptr inbounds %struct.jpeg_error_mgr, ptr %21, i32 0, i32 6
  %23 = getelementptr inbounds [8 x i32], ptr %22, i64 0, i64 0
  store i32 %18, ptr %23, align 4
  %24 = load ptr, ptr %2, align 8
  %25 = getelementptr inbounds %struct.jpeg_decompress_struct, ptr %24, i32 0, i32 0
  %26 = load ptr, ptr %25, align 8
  %27 = getelementptr inbounds %struct.jpeg_error_mgr, ptr %26, i32 0, i32 0
  %28 = load ptr, ptr %27, align 8
  %29 = load ptr, ptr %2, align 8
  call void %28(ptr noundef %29)
  br label %30

30:                                               ; preds = %11, %1
  %31 = load ptr, ptr %2, align 8
  %32 = getelementptr inbounds %struct.jpeg_decompress_struct, ptr %31, i32 0, i32 20
  %33 = load i32, ptr %32, align 4
  %34 = icmp ne i32 %33, 0
  br i1 %34, label %35, label %60

35:                                               ; preds = %30
  %36 = load ptr, ptr %2, align 8
  %37 = getelementptr inbounds %struct.jpeg_decompress_struct, ptr %36, i32 0, i32 25
  %38 = load i32, ptr %37, align 8
  %39 = icmp ne i32 %38, 0
  br i1 %39, label %40, label %60

40:                                               ; preds = %35
  %41 = load ptr, ptr %2, align 8
  %42 = getelementptr inbounds %struct.jpeg_decompress_struct, ptr %41, i32 0, i32 33
  %43 = load ptr, ptr %42, align 8
  %44 = icmp ne ptr %43, null
  br i1 %44, label %45, label %60

45:                                               ; preds = %40
  %46 = load ptr, ptr %3, align 8
  %47 = getelementptr inbounds %struct.my_decomp_master, ptr %46, i32 0, i32 4
  %48 = load ptr, ptr %47, align 8
  %49 = load ptr, ptr %2, align 8
  %50 = getelementptr inbounds %struct.jpeg_decompress_struct, ptr %49, i32 0, i32 87
  store ptr %48, ptr %50, align 8
  %51 = load ptr, ptr %2, align 8
  %52 = getelementptr inbounds %struct.jpeg_decompress_struct, ptr %51, i32 0, i32 87
  %53 = load ptr, ptr %52, align 8
  %54 = getelementptr inbounds %struct.jpeg_color_quantizer, ptr %53, i32 0, i32 4
  %55 = load ptr, ptr %54, align 8
  %56 = load ptr, ptr %2, align 8
  call void %55(ptr noundef %56)
  %57 = load ptr, ptr %3, align 8
  %58 = getelementptr inbounds %struct.my_decomp_master, ptr %57, i32 0, i32 0
  %59 = getelementptr inbounds %struct.jpeg_decomp_master, ptr %58, i32 0, i32 2
  store i32 0, ptr %59, align 8
  br label %71

60:                                               ; preds = %40, %35, %30
  %61 = load ptr, ptr %2, align 8
  %62 = getelementptr inbounds %struct.jpeg_decompress_struct, ptr %61, i32 0, i32 0
  %63 = load ptr, ptr %62, align 8
  %64 = getelementptr inbounds %struct.jpeg_error_mgr, ptr %63, i32 0, i32 5
  store i32 46, ptr %64, align 8
  %65 = load ptr, ptr %2, align 8
  %66 = getelementptr inbounds %struct.jpeg_decompress_struct, ptr %65, i32 0, i32 0
  %67 = load ptr, ptr %66, align 8
  %68 = getelementptr inbounds %struct.jpeg_error_mgr, ptr %67, i32 0, i32 0
  %69 = load ptr, ptr %68, align 8
  %70 = load ptr, ptr %2, align 8
  call void %69(ptr noundef %70)
  br label %71

71:                                               ; preds = %60, %45
  ret void
}